target datalayout = "e-m:e-p270:32:32-p271:32:32-p272:64:64-i64:64-i128:128-f80:128-n8:16:32:64-S128"
target triple = "x86_64-pc-linux-gnu"

%"class.llvm::FoldingSetBase::Node" = type { ptr }
%"class.clang::TypeLoc" = type { ptr, ptr }
%"class.clang::NestedNameSpecifierLoc" = type { ptr, ptr }
%"class.clang::NestedNameSpecifier" = type { %"class.llvm::FoldingSetBase::Node", %"class.llvm::PointerIntPair.543", ptr }
%"class.llvm::PointerIntPair.543" = type { %"struct.llvm::detail::PunnedPointer.544" }
%"struct.llvm::detail::PunnedPointer.544" = type { [8 x i8] }

; Function Attrs: mustprogress nounwind uwtable
define linkonce_odr hidden noundef ptr @_ZN4llvm21PointerLikeTypeTraitsIPN5clang19NestedNameSpecifierEE18getFromVoidPointerEPv(ptr noundef %0) #0 comdat align 2 {
  %2 = alloca ptr, align 8
  store ptr %0, ptr %2, align 8
  %3 = load ptr, ptr %2, align 8
  ret ptr %3
}

; Function Attrs: mustprogress nounwind uwtable
define linkonce_odr hidden noundef i64 @_ZNK4llvm6detail13PunnedPointerIPN5clang19NestedNameSpecifierEE5asIntEv(ptr noundef nonnull align 8 dereferenceable(8) %0) #0 comdat align 2 {
  %2 = alloca ptr, align 8
  %3 = alloca i64, align 8
  store ptr %0, ptr %2, align 8
  %4 = load ptr, ptr %2, align 8
  store i64 0, ptr %3, align 8
  %5 = getelementptr inbounds nuw %"struct.llvm::detail::PunnedPointer.544", ptr %4, i32 0, i32 0
  %6 = getelementptr inbounds [8 x i8], ptr %5, i64 0, i64 0
  call void @llvm.memcpy.p0.p0.i64(ptr align 8 %3, ptr align 8 %6, i64 8, i1 false)
  %7 = load i64, ptr %3, align 8
  ret i64 %7
}

; Function Attrs: mustprogress nounwind uwtable
define linkonce_odr hidden noundef ptr @_ZN4llvm18PointerIntPairInfoIPN5clang19NestedNameSpecifierELj2ENS_21PointerLikeTypeTraitsIS3_EEE10getPointerEl(i64 noundef %0) #0 comdat align 2 {
  %2 = alloca i64, align 8
  store i64 %0, ptr %2, align 8
  %3 = load i64, ptr %2, align 8
  %4 = and i64 %3, -8
  %5 = inttoptr i64 %4 to ptr
  %6 = call noundef ptr @_ZN4llvm21PointerLikeTypeTraitsIPN5clang19NestedNameSpecifierEE18getFromVoidPointerEPv(ptr noundef %5)
  ret ptr %6
}

; Function Attrs: mustprogress nounwind uwtable
define linkonce_odr hidden noundef i64 @_ZNK4llvm6detail13PunnedPointerIPN5clang19NestedNameSpecifierEEcvlEv(ptr noundef nonnull align 8 dereferenceable(8) %0) #0 comdat align 2 {
  %2 = alloca ptr, align 8
  store ptr %0, ptr %2, align 8
  %3 = load ptr, ptr %2, align 8
  %4 = call noundef i64 @_ZNK4llvm6detail13PunnedPointerIPN5clang19NestedNameSpecifierEE5asIntEv(ptr noundef nonnull align 8 dereferenceable(8) %3)
  ret i64 %4
}

; Function Attrs: mustprogress nounwind uwtable
define linkonce_odr hidden noundef ptr @_ZNK4llvm14PointerIntPairIPN5clang19NestedNameSpecifierELj2ENS2_19StoredSpecifierKindENS_21PointerLikeTypeTraitsIS3_EENS_18PointerIntPairInfoIS3_Lj2ES6_EEE10getPointerEv(ptr noundef nonnull align 8 dereferenceable(8) %0) #0 comdat align 2 {
  %2 = alloca ptr, align 8
  store ptr %0, ptr %2, align 8
  %3 = load ptr, ptr %2, align 8
  %4 = getelementptr inbounds nuw %"class.llvm::PointerIntPair.543", ptr %3, i32 0, i32 0
  %5 = call noundef i64 @_ZNK4llvm6detail13PunnedPointerIPN5clang19NestedNameSpecifierEEcvlEv(ptr noundef nonnull align 8 dereferenceable(8) %4)
  %6 = call noundef ptr @_ZN4llvm18PointerIntPairInfoIPN5clang19NestedNameSpecifierELj2ENS_21PointerLikeTypeTraitsIS3_EEE10getPointerEl(i64 noundef %5)
  ret ptr %6
}

; Function Attrs: mustprogress nounwind uwtable
define linkonce_odr hidden void @_ZN5clang22NestedNameSpecifierLocC2EPNS_19NestedNameSpecifierEPv(ptr noundef nonnull align 8 dereferenceable(16) %0, ptr noundef %1, ptr noundef %2) unnamed_addr #0 comdat align 2 {
  %4 = alloca ptr, align 8
  %5 = alloca ptr, align 8
  %6 = alloca ptr, align 8
  store ptr %0, ptr %4, align 8
  store ptr %1, ptr %5, align 8
  store ptr %2, ptr %6, align 8
  %7 = load ptr, ptr %4, align 8
  %8 = getelementptr inbounds nuw %"class.clang::NestedNameSpecifierLoc", ptr %7, i32 0, i32 0
  %9 = load ptr, ptr %5, align 8
  store ptr %9, ptr %8, align 8
  %10 = getelementptr inbounds nuw %"class.clang::NestedNameSpecifierLoc", ptr %7, i32 0, i32 1
  %11 = load ptr, ptr %6, align 8
  store ptr %11, ptr %10, align 8
  ret void
}

; Function Attrs: mustprogress nounwind uwtable
define linkonce_odr hidden noundef ptr @_ZNK5clang19NestedNameSpecifier9getPrefixEv(ptr noundef nonnull align 8 dereferenceable(24) %0) #0 comdat align 2 {
  %2 = alloca ptr, align 8
  store ptr %0, ptr %2, align 8
  %3 = load ptr, ptr %2, align 8
  %4 = getelementptr inbounds nuw %"class.clang::NestedNameSpecifier", ptr %3, i32 0, i32 1
  %5 = call noundef ptr @_ZNK4llvm14PointerIntPairIPN5clang19NestedNameSpecifierELj2ENS2_19StoredSpecifierKindENS_21PointerLikeTypeTraitsIS3_EENS_18PointerIntPairInfoIS3_Lj2ES6_EEE10getPointerEv(ptr noundef nonnull align 8 dereferenceable(8) %4)
  ret ptr %5
}

; Function Attrs: mustprogress nounwind uwtable
define linkonce_odr hidden noundef ptr @_ZNK5clang22NestedNameSpecifierLoc22getNestedNameSpecifierEv(ptr noundef nonnull align 8 dereferenceable(16) %0) #0 comdat align 2 {
  %2 = alloca ptr, align 8
  store ptr %0, ptr %2, align 8
  %3 = load ptr, ptr %2, align 8
  %4 = getelementptr inbounds nuw %"class.clang::NestedNameSpecifierLoc", ptr %3, i32 0, i32 0
  %5 = load ptr, ptr %4, align 8
  ret ptr %5
}

; Function Attrs: mustprogress nounwind uwtable
define internal noundef nonnull align 8 dereferenceable(8) ptr @_ZN5clang19RecursiveASTVisitorINS_12_GLOBAL__N_17BuilderEE10getDerivedEv(ptr noundef nonnull align 1 dereferenceable(1) %0) #0 align 2 {
  %2 = alloca ptr, align 8
  store ptr %0, ptr %2, align 8
  %3 = load ptr, ptr %2, align 8
  ret ptr %3
}

; Function Attrs: mustprogress nounwind uwtable
define linkonce_odr hidden { ptr, ptr } @_ZNK5clang22NestedNameSpecifierLoc9getPrefixEv(ptr noundef nonnull align 8 dereferenceable(16) %0) #0 comdat align 2 {
  %2 = alloca %"class.clang::NestedNameSpecifierLoc", align 8
  %3 = alloca ptr, align 8
  store ptr %0, ptr %3, align 8
  %4 = load ptr, ptr %3, align 8
  %5 = getelementptr inbounds nuw %"class.clang::NestedNameSpecifierLoc", ptr %4, i32 0, i32 0
  %6 = load ptr, ptr %5, align 8
  %7 = icmp ne ptr %6, null
  br i1 %7, label %9, label %8

8:                                                ; preds = %1
  call void @llvm.memcpy.p0.p0.i64(ptr align 8 %2, ptr align 8 %4, i64 16, i1 false)
  br label %15

9:                                                ; preds = %1
  %10 = getelementptr inbounds nuw %"class.clang::NestedNameSpecifierLoc", ptr %4, i32 0, i32 0
  %11 = load ptr, ptr %10, align 8
  %12 = call noundef ptr @_ZNK5clang19NestedNameSpecifier9getPrefixEv(ptr noundef nonnull align 8 dereferenceable(24) %11)
  %13 = getelementptr inbounds nuw %"class.clang::NestedNameSpecifierLoc", ptr %4, i32 0, i32 1
  %14 = load ptr, ptr %13, align 8
  call void @_ZN5clang22NestedNameSpecifierLocC2EPNS_19NestedNameSpecifierEPv(ptr noundef nonnull align 8 dereferenceable(16) %2, ptr noundef %12, ptr noundef %14)
  br label %15

15:                                               ; preds = %9, %8
  %16 = load { ptr, ptr }, ptr %2, align 8
  ret { ptr, ptr } %16
}

; Function Attrs: mustprogress nounwind uwtable
define linkonce_odr hidden noundef zeroext i1 @_ZNK5clang22NestedNameSpecifierLoccvbEv(ptr noundef nonnull align 8 dereferenceable(16) %0) #0 comdat align 2 {
  %2 = alloca ptr, align 8
  store ptr %0, ptr %2, align 8
  %3 = load ptr, ptr %2, align 8
  %4 = getelementptr inbounds nuw %"class.clang::NestedNameSpecifierLoc", ptr %3, i32 0, i32 0
  %5 = load ptr, ptr %4, align 8
  %6 = icmp ne ptr %5, null
  ret i1 %6
}

; Function Attrs: mustprogress nounwind uwtable
define internal noundef zeroext i1 @_ZN5clang19RecursiveASTVisitorINS_12_GLOBAL__N_17BuilderEE30TraverseNestedNameSpecifierLocENS_22NestedNameSpecifierLocE(ptr noundef nonnull align 1 dereferenceable(1) %0, ptr %1, ptr %2) #0 align 2 {
  %4 = alloca i1, align 1
  %5 = alloca %"class.clang::NestedNameSpecifierLoc", align 8
  %6 = alloca ptr, align 8
  %7 = alloca %"class.clang::NestedNameSpecifierLoc", align 8
  %8 = alloca %"class.clang::NestedNameSpecifierLoc", align 8
  %9 = alloca %"class.clang::TypeLoc", align 8
  %10 = getelementptr inbounds nuw { ptr, ptr }, ptr %5, i32 0, i32 0
  store ptr %1, ptr %10, align 8
  %11 = getelementptr inbounds nuw { ptr, ptr }, ptr %5, i32 0, i32 1
  store ptr %2, ptr %11, align 8
  store ptr %0, ptr %6, align 8
  %12 = load ptr, ptr %6, align 8
  %13 = call noundef zeroext i1 @_ZNK5clang22NestedNameSpecifierLoccvbEv(ptr noundef nonnull align 8 dereferenceable(16) %5)
  br i1 %13, label %15, label %14

14:                                               ; preds = %3
  store i1 true, ptr %4, align 1
  br label %54

15:                                               ; preds = %3
  %16 = call { ptr, ptr } @_ZNK5clang22NestedNameSpecifierLoc9getPrefixEv(ptr noundef nonnull align 8 dereferenceable(16) %5)
  %17 = getelementptr inbounds nuw { ptr, ptr }, ptr %7, i32 0, i32 0
  %18 = extractvalue { ptr, ptr } %16, 0
  store ptr %18, ptr %17, align 8
  %19 = getelementptr inbounds nuw { ptr, ptr }, ptr %7, i32 0, i32 1
  %20 = extractvalue { ptr, ptr } %16, 1
  store ptr %20, ptr %19, align 8
  %21 = call noundef zeroext i1 @_ZNK5clang22NestedNameSpecifierLoccvbEv(ptr noundef nonnull align 8 dereferenceable(16) %7)
  br i1 %21, label %22, label %33

22:                                               ; preds = %15
  br label %23

23:                                               ; preds = %22
  %24 = call noundef nonnull align 8 dereferenceable(8) ptr @_ZN5clang19RecursiveASTVisitorINS_12_GLOBAL__N_17BuilderEE10getDerivedEv(ptr noundef nonnull align 1 dereferenceable(1) %12)
  call void @llvm.memcpy.p0.p0.i64(ptr align 8 %8, ptr align 8 %7, i64 16, i1 false)
  %25 = getelementptr inbounds nuw { ptr, ptr }, ptr %8, i32 0, i32 0
  %26 = load ptr, ptr %25, align 8
  %27 = getelementptr inbounds nuw { ptr, ptr }, ptr %8, i32 0, i32 1
  %28 = load ptr, ptr %27, align 8
  %29 = call noundef zeroext i1 @_ZN5clang19RecursiveASTVisitorINS_12_GLOBAL__N_17BuilderEE30TraverseNestedNameSpecifierLocENS_22NestedNameSpecifierLocE(ptr noundef nonnull align 1 dereferenceable(1) %24, ptr %26, ptr %28)
  br i1 %29, label %31, label %30

30:                                               ; preds = %23
  store i1 false, ptr %4, align 1
  br label %54

31:                                               ; preds = %23
  br label %32

32:                                               ; preds = %31
  br label %33

33:                                               ; preds = %32, %15
  %34 = call noundef ptr @_ZNK5clang22NestedNameSpecifierLoc22getNestedNameSpecifierEv(ptr noundef nonnull align 8 dereferenceable(16) %5)
  %35 = call noundef i32 @_ZNK5clang19NestedNameSpecifier7getKindEv(ptr noundef nonnull align 8 dereferenceable(24) %34)
  switch i32 %35, label %53 [
    i32 0, label %36
    i32 1, label %36
    i32 2, label %36
    i32 5, label %36
    i32 6, label %36
    i32 3, label %37
    i32 4, label %37
  ]

36:                                               ; preds = %33, %33, %33, %33, %33
  store i1 true, ptr %4, align 1
  br label %54

37:                                               ; preds = %33, %33
  br label %38

38:                                               ; preds = %37
  %39 = call noundef nonnull align 8 dereferenceable(8) ptr @_ZN5clang19RecursiveASTVisitorINS_12_GLOBAL__N_17BuilderEE10getDerivedEv(ptr noundef nonnull align 1 dereferenceable(1) %12)
  %40 = call { ptr, ptr } @_ZNK5clang22NestedNameSpecifierLoc10getTypeLocEv(ptr noundef nonnull align 8 dereferenceable(16) %5)
  %41 = getelementptr inbounds nuw { ptr, ptr }, ptr %9, i32 0, i32 0
  %42 = extractvalue { ptr, ptr } %40, 0
  store ptr %42, ptr %41, align 8
  %43 = getelementptr inbounds nuw { ptr, ptr }, ptr %9, i32 0, i32 1
  %44 = extractvalue { ptr, ptr } %40, 1
  store ptr %44, ptr %43, align 8
  %45 = getelementptr inbounds nuw { ptr, ptr }, ptr %9, i32 0, i32 0
  %46 = load ptr, ptr %45, align 8
  %47 = getelementptr inbounds nuw { ptr, ptr }, ptr %9, i32 0, i32 1
  %48 = load ptr, ptr %47, align 8
  %49 = call noundef zeroext i1 @_ZN5clang19RecursiveASTVisitorINS_12_GLOBAL__N_17BuilderEE15TraverseTypeLocENS_7TypeLocE(ptr noundef nonnull align 1 dereferenceable(1) %39, ptr %46, ptr %48)
  br i1 %49, label %51, label %50

50:                                               ; preds = %38
  store i1 false, ptr %4, align 1
  br label %54

51:                                               ; preds = %38
  br label %52

52:                                               ; preds = %51
  br label %53

53:                                               ; preds = %52, %33
  store i1 true, ptr %4, align 1
  br label %54

54:                                               ; preds = %53, %50, %36, %30, %14
  %55 = load i1, ptr %4, align 1
  ret i1 %55
}